; Function Attrs: mustprogress nofree norecurse nosync nounwind willreturn memory(readwrite, inaccessiblemem: none) uwtable
define internal void @_Z7calc_muiiN3gmx8ArrayRefIKNS_11BasicVectorIfEEEENS0_IKfEES6_bPdS7_.omp_outlined.1.omp.reduction.reduction_func(ptr noundef readonly captures(none) %0, ptr noundef readonly captures(none) %1) #4 {
  %3 = load ptr, ptr %1, align 8
  %4 = load ptr, ptr %0, align 8
  %5 = getelementptr inbounds nuw i8, ptr %1, i64 8
  %6 = load ptr, ptr %5, align 8
  %7 = getelementptr inbounds nuw i8, ptr %0, i64 8
  %8 = load ptr, ptr %7, align 8
  %9 = getelementptr inbounds nuw i8, ptr %1, i64 16
  %10 = load ptr, ptr %9, align 8
  %11 = getelementptr inbounds nuw i8, ptr %0, i64 16
  %12 = load ptr, ptr %11, align 8
  %13 = load double, ptr %4, align 8, !tbaa !8
  %14 = load double, ptr %3, align 8, !tbaa !8
  %15 = fadd double %13, %14
  store double %15, ptr %4, align 8, !tbaa !8
  %16 = load double, ptr %8, align 8, !tbaa !8
  %17 = load double, ptr %6, align 8, !tbaa !8
  %18 = fadd double %16, %17
  store double %18, ptr %8, align 8, !tbaa !8
  %19 = load double, ptr %12, align 8, !tbaa !8
  %20 = load double, ptr %10, align 8, !tbaa !8
  %21 = fadd double %19, %20
  store double %21, ptr %12, align 8, !tbaa !8
  ret void
}